; Function Attrs: nounwind uwtable
define hidden i32 @mbedtls_ecp_gen_keypair(ptr noundef %0, ptr noundef %1, ptr noundef %2, ptr noundef %3, ptr noundef %4) local_unnamed_addr #7 {
  %6 = getelementptr inbounds nuw i8, ptr %0, i64 56
  %7 = tail call i32 @mbedtls_ecp_gen_privkey(ptr noundef %0, ptr noundef %1, ptr noundef %3, ptr noundef %4)
  %.not.i = icmp eq i32 %7, 0
  br i1 %.not.i, label %8, label %mbedtls_ecp_gen_keypair_base.exit

8:                                                ; preds = %5
  %9 = icmp eq ptr %3, null
  br i1 %9, label %mbedtls_ecp_gen_keypair_base.exit, label %10

10:                                               ; preds = %8
  %11 = tail call fastcc i32 @ecp_mul_restartable_internal(ptr noundef %0, ptr noundef %2, ptr noundef %1, ptr noundef nonnull %6, ptr noundef nonnull %3, ptr noundef %4)
  br label %mbedtls_ecp_gen_keypair_base.exit

mbedtls_ecp_gen_keypair_base.exit:                ; preds = %5, %8, %10
  %.0.i = phi i32 [ %7, %5 ], [ %11, %10 ], [ -20352, %8 ]
  ret i32 %.0.i
}